; Function Attrs: mustprogress uwtable
define dso_local void @_ZNSt3__121recursive_timed_mutex4lockEv(ptr noundef nonnull align 8 dereferenceable(104) %0) local_unnamed_addr #0 align 2 personality ptr @__gxx_personality_v0 {
  %2 = alloca %"class.std::__1::unique_lock", align 8
  %3 = tail call noundef i64 @pthread_self() #13
  call void @llvm.lifetime.start.p0(i64 16, ptr nonnull %2) #10
  store ptr %0, ptr %2, align 8, !tbaa !5
  %4 = getelementptr inbounds nuw i8, ptr %2, i64 8
  store i8 1, ptr %4, align 8, !tbaa !12
  %5 = tail call noundef i32 @pthread_mutex_lock(ptr noundef nonnull align 8 dereferenceable(40) %0) #10
  %.not.i.i = icmp eq i32 %5, 0
  br i1 %.not.i.i, label %_ZNSt3__111unique_lockINS_5mutexEEC2B8ne210000ERS1_.exit, label %6

6:                                                ; preds = %1
  tail call void @_ZNSt3__120__throw_system_errorEiPKc(i32 noundef %5, ptr noundef nonnull @.str) #11
  unreachable

_ZNSt3__111unique_lockINS_5mutexEEC2B8ne210000ERS1_.exit: ; preds = %1
  %7 = getelementptr inbounds nuw i8, ptr %0, i64 96
  %.sroa.0.0.copyload = load i64, ptr %7, align 8, !tbaa !21
  %.0.i = icmp eq i64 %.sroa.0.0.copyload, %3
  %8 = getelementptr inbounds nuw i8, ptr %0, i64 88
  %9 = load i64, ptr %8, align 8, !tbaa !23
  br i1 %.0.i, label %11, label %.preheader

.preheader:                                       ; preds = %_ZNSt3__111unique_lockINS_5mutexEEC2B8ne210000ERS1_.exit
  %.not5 = icmp eq i64 %9, 0
  br i1 %.not5, label %.thread7, label %.lr.ph

.thread7:                                         ; preds = %.preheader
  store i64 1, ptr %8, align 8, !tbaa !23
  store i64 %3, ptr %7, align 8, !tbaa !21
  br label %22

.lr.ph:                                           ; preds = %.preheader
  %10 = getelementptr inbounds nuw i8, ptr %0, i64 40
  br label %18

11:                                               ; preds = %_ZNSt3__111unique_lockINS_5mutexEEC2B8ne210000ERS1_.exit
  %12 = icmp eq i64 %9, -1
  br i1 %12, label %13, label %.thread

13:                                               ; preds = %11
  invoke void @_ZNSt3__120__throw_system_errorEiPKc(i32 noundef 11, ptr noundef nonnull @.str.3) #11
          to label %14 unwind label %_ZNSt3__111unique_lockINS_5mutexEED2B8ne210000Ev.exit

14:                                               ; preds = %13
  unreachable

_ZNSt3__111unique_lockINS_5mutexEED2B8ne210000Ev.exit: ; preds = %13
  %15 = landingpad { ptr, i32 }
          cleanup
  %16 = tail call noundef i32 @pthread_mutex_unlock(ptr noundef nonnull align 8 dereferenceable(40) %0) #10
  call void @llvm.lifetime.end.p0(i64 16, ptr nonnull %2) #10
  resume { ptr, i32 } %15

.thread:                                          ; preds = %11
  %17 = add nuw i64 %9, 1
  store i64 %17, ptr %8, align 8, !tbaa !23
  br label %22

18:                                               ; preds = %.lr.ph, %18
  call void @_ZNSt3__118condition_variable4waitERNS_11unique_lockINS_5mutexEEE(ptr noundef nonnull align 8 dereferenceable(48) %10, ptr noundef nonnull align 8 dereferenceable(9) %2) #10
  %19 = load i64, ptr %8, align 8, !tbaa !23
  %.not = icmp eq i64 %19, 0
  br i1 %.not, label %20, label %18, !llvm.loop !26

20:                                               ; preds = %18
  %.pre.pre = load i8, ptr %4, align 8, !tbaa !12, !range !17
  %21 = trunc nuw i8 %.pre.pre to i1
  store i64 1, ptr %8, align 8, !tbaa !23
  store i64 %3, ptr %7, align 8, !tbaa !21
  br i1 %21, label %22, label %_ZNSt3__111unique_lockINS_5mutexEED2B8ne210000Ev.exit4

22:                                               ; preds = %.thread7, %.thread, %20
  %23 = load ptr, ptr %2, align 8, !tbaa !5
  %24 = call noundef i32 @pthread_mutex_unlock(ptr noundef nonnull align 8 dereferenceable(40) %23) #10
  br label %_ZNSt3__111unique_lockINS_5mutexEED2B8ne210000Ev.exit4

_ZNSt3__111unique_lockINS_5mutexEED2B8ne210000Ev.exit4: ; preds = %20, %22
  call void @llvm.lifetime.end.p0(i64 16, ptr nonnull %2) #10
  ret void
}